target datalayout = "e-m:e-p270:32:32-p271:32:32-p272:64:64-i64:64-i128:128-f80:128-n8:16:32:64-S128"
target triple = "x86_64-pc-linux-gnu"

%struct.pmix_mca_base_framework_t = type { ptr, ptr, ptr, ptr, ptr, ptr, i32, i32, ptr, ptr, i32, i32, %struct.pmix_list_t, %struct.pmix_list_t }
%struct.pmix_list_t = type { %struct.pmix_object_t, %struct.pmix_list_item_t, i64 }
%struct.pmix_object_t = type { %union.pthread_mutex_t, ptr, i32, %struct.pmix_tma }
%union.pthread_mutex_t = type { %struct.__pthread_mutex_s }
%struct.__pthread_mutex_s = type { i32, i32, i32, i32, i32, i16, i16, %struct.__pthread_internal_list }
%struct.__pthread_internal_list = type { ptr, ptr }
%struct.pmix_tma = type { ptr, ptr, ptr, ptr, ptr, ptr, ptr, ptr }
%struct.pmix_list_item_t = type { %struct.pmix_object_t, ptr, ptr, i32 }
%struct.pmix_output_desc_t = type { i8, i8, i32, i8, i32, ptr, ptr, i32, ptr, i32, i8, i8, i8, i8, ptr, i32, i32 }
%struct.prte_process_info_t = type { %struct.pmix_proc, %struct.pmix_proc, ptr, %struct.pmix_proc, i32, i32, i32, ptr, ptr, i32, i8, ptr, i16, ptr, ptr, i8, ptr, i8 }
%struct.pmix_proc = type { [256 x i8], i32 }
%struct.pmix_class_t = type { ptr, ptr, ptr, ptr, i32, i32, ptr, ptr, i64 }
%struct.pmix_pointer_array_t = type { %struct.pmix_object_t, i32, i32, i32, i32, i32, ptr, ptr }
%struct.prte_proc_t = type { %struct.pmix_list_item_t, %struct.pmix_proc, i32, i32, i16, i16, i32, i16, i32, i32, i32, i32, ptr, ptr, ptr, ptr, i16, %struct.pmix_list_t }

@prte_plm_base_framework = external global %struct.pmix_mca_base_framework_t, align 8
@pmix_output_info = external global [0 x %struct.pmix_output_desc_t], align 8
@prte_process_info = external global %struct.prte_process_info_t, align 8
@.str.2 = private unnamed_addr constant [27 x i8] c"base/plm_base_prted_cmds.c\00", align 1
@.str.3 = private unnamed_addr constant [37 x i8] c"PRTE ERROR: %s in file %s at line %d\00", align 1
@.str.4 = private unnamed_addr constant [35 x i8] c"%s plm:base:prted_terminate job %s\00", align 1
@pmix_class_init_epoch = external global i32, align 4
@pmix_pointer_array_t_class = external global %struct.pmix_class_t, align 8
@prte_proc_t_class = external global %struct.pmix_class_t, align 8

; Function Attrs: inlinehint nounwind uwtable
define internal void @pmix_obj_run_destructors(ptr noundef %0) #3 {
  %2 = alloca ptr, align 8
  %3 = alloca ptr, align 8
  store ptr %0, ptr %2, align 8, !tbaa !33
  call void @llvm.lifetime.start.p0(i64 8, ptr %3) #11
  %4 = load ptr, ptr %2, align 8, !tbaa !33
  %5 = getelementptr inbounds nuw %struct.pmix_object_t, ptr %4, i32 0, i32 1
  %6 = load ptr, ptr %5, align 8, !tbaa !42
  %7 = getelementptr inbounds nuw %struct.pmix_class_t, ptr %6, i32 0, i32 7
  %8 = load ptr, ptr %7, align 8, !tbaa !51
  store ptr %8, ptr %3, align 8, !tbaa !26
  br label %9

9:                                                ; preds = %13, %1
  %10 = load ptr, ptr %3, align 8, !tbaa !26
  %11 = load ptr, ptr %10, align 8, !tbaa !26
  %12 = icmp ne ptr null, %11
  br i1 %12, label %13, label %19

13:                                               ; preds = %9
  %14 = load ptr, ptr %3, align 8, !tbaa !26
  %15 = load ptr, ptr %14, align 8, !tbaa !26
  %16 = load ptr, ptr %2, align 8, !tbaa !33
  call void %15(ptr noundef %16)
  %17 = load ptr, ptr %3, align 8, !tbaa !26
  %18 = getelementptr inbounds nuw ptr, ptr %17, i32 1
  store ptr %18, ptr %3, align 8, !tbaa !26
  br label %9, !llvm.loop !52

19:                                               ; preds = %9
  call void @llvm.lifetime.end.p0(i64 8, ptr %3) #11
  ret void
}

; Function Attrs: inlinehint nounwind uwtable
define internal void @pmix_obj_run_constructors(ptr noundef %0) #3 {
  %2 = alloca ptr, align 8
  %3 = alloca ptr, align 8
  store ptr %0, ptr %2, align 8, !tbaa !33
  call void @llvm.lifetime.start.p0(i64 8, ptr %3) #11
  %4 = load ptr, ptr %2, align 8, !tbaa !33
  %5 = getelementptr inbounds nuw %struct.pmix_object_t, ptr %4, i32 0, i32 1
  %6 = load ptr, ptr %5, align 8, !tbaa !42
  %7 = getelementptr inbounds nuw %struct.pmix_class_t, ptr %6, i32 0, i32 6
  %8 = load ptr, ptr %7, align 8, !tbaa !57
  store ptr %8, ptr %3, align 8, !tbaa !26
  br label %9

9:                                                ; preds = %13, %1
  %10 = load ptr, ptr %3, align 8, !tbaa !26
  %11 = load ptr, ptr %10, align 8, !tbaa !26
  %12 = icmp ne ptr null, %11
  br i1 %12, label %13, label %19

13:                                               ; preds = %9
  %14 = load ptr, ptr %3, align 8, !tbaa !26
  %15 = load ptr, ptr %14, align 8, !tbaa !26
  %16 = load ptr, ptr %2, align 8, !tbaa !33
  call void %15(ptr noundef %16)
  %17 = load ptr, ptr %3, align 8, !tbaa !26
  %18 = getelementptr inbounds nuw ptr, ptr %17, i32 1
  store ptr %18, ptr %3, align 8, !tbaa !26
  br label %9, !llvm.loop !58

19:                                               ; preds = %9
  call void @llvm.lifetime.end.p0(i64 8, ptr %3) #11
  ret void
}

; Function Attrs: inlinehint nounwind uwtable
define internal void @pmix_obj_construct_tma(ptr noundef %0, ptr noundef %1) #3 {
  %3 = alloca ptr, align 8
  %4 = alloca ptr, align 8
  store ptr %0, ptr %3, align 8, !tbaa !33
  store ptr %1, ptr %4, align 8, !tbaa !37
  %5 = load ptr, ptr %4, align 8, !tbaa !37
  %6 = icmp eq ptr null, %5
  br i1 %6, label %7, label %32

7:                                                ; preds = %2
  %8 = load ptr, ptr %3, align 8, !tbaa !33
  %9 = getelementptr inbounds nuw %struct.pmix_object_t, ptr %8, i32 0, i32 3
  %10 = getelementptr inbounds nuw %struct.pmix_tma, ptr %9, i32 0, i32 0
  store ptr null, ptr %10, align 8, !tbaa !44
  %11 = load ptr, ptr %3, align 8, !tbaa !33
  %12 = getelementptr inbounds nuw %struct.pmix_object_t, ptr %11, i32 0, i32 3
  %13 = getelementptr inbounds nuw %struct.pmix_tma, ptr %12, i32 0, i32 1
  store ptr null, ptr %13, align 8, !tbaa !45
  %14 = load ptr, ptr %3, align 8, !tbaa !33
  %15 = getelementptr inbounds nuw %struct.pmix_object_t, ptr %14, i32 0, i32 3
  %16 = getelementptr inbounds nuw %struct.pmix_tma, ptr %15, i32 0, i32 2
  store ptr null, ptr %16, align 8, !tbaa !46
  %17 = load ptr, ptr %3, align 8, !tbaa !33
  %18 = getelementptr inbounds nuw %struct.pmix_object_t, ptr %17, i32 0, i32 3
  %19 = getelementptr inbounds nuw %struct.pmix_tma, ptr %18, i32 0, i32 3
  store ptr null, ptr %19, align 8, !tbaa !47
  %20 = load ptr, ptr %3, align 8, !tbaa !33
  %21 = getelementptr inbounds nuw %struct.pmix_object_t, ptr %20, i32 0, i32 3
  %22 = getelementptr inbounds nuw %struct.pmix_tma, ptr %21, i32 0, i32 4
  store ptr null, ptr %22, align 8, !tbaa !56
  %23 = load ptr, ptr %3, align 8, !tbaa !33
  %24 = getelementptr inbounds nuw %struct.pmix_object_t, ptr %23, i32 0, i32 3
  %25 = getelementptr inbounds nuw %struct.pmix_tma, ptr %24, i32 0, i32 5
  store ptr null, ptr %25, align 8, !tbaa !35
  %26 = load ptr, ptr %3, align 8, !tbaa !33
  %27 = getelementptr inbounds nuw %struct.pmix_object_t, ptr %26, i32 0, i32 3
  %28 = getelementptr inbounds nuw %struct.pmix_tma, ptr %27, i32 0, i32 6
  store ptr null, ptr %28, align 8, !tbaa !48
  %29 = load ptr, ptr %3, align 8, !tbaa !33
  %30 = getelementptr inbounds nuw %struct.pmix_object_t, ptr %29, i32 0, i32 3
  %31 = getelementptr inbounds nuw %struct.pmix_tma, ptr %30, i32 0, i32 7
  store ptr null, ptr %31, align 8, !tbaa !49
  br label %36

32:                                               ; preds = %2
  %33 = load ptr, ptr %3, align 8, !tbaa !33
  %34 = getelementptr inbounds nuw %struct.pmix_object_t, ptr %33, i32 0, i32 3
  %35 = load ptr, ptr %4, align 8, !tbaa !37
  call void @llvm.memcpy.p0.p0.i64(ptr align 8 %34, ptr align 8 %35, i64 64, i1 false), !tbaa.struct !50
  br label %36

36:                                               ; preds = %32, %7
  ret void
}

; Function Attrs: nounwind uwtable
define i32 @prte_plm_base_prted_terminate_job(ptr noundef %0) #0 {
  %2 = alloca ptr, align 8
  %3 = alloca %struct.pmix_pointer_array_t, align 8
  %4 = alloca %struct.prte_proc_t, align 8
  %5 = alloca i32, align 4
  store ptr %0, ptr %2, align 8, !tbaa !55
  call void @llvm.lifetime.start.p0(i64 160, ptr %3) #11
  call void @llvm.lifetime.start.p0(i64 752, ptr %4) #11
  call void @llvm.lifetime.start.p0(i64 4, ptr %5) #11
  %6 = load i32, ptr getelementptr inbounds nuw (%struct.pmix_mca_base_framework_t, ptr @prte_plm_base_framework, i32 0, i32 11), align 4, !tbaa !6
  %7 = icmp sge i32 %6, 0
  br i1 %7, label %8, label %23

8:                                                ; preds = %1
  %9 = load i32, ptr getelementptr inbounds nuw (%struct.pmix_mca_base_framework_t, ptr @prte_plm_base_framework, i32 0, i32 11), align 4, !tbaa !6
  %10 = icmp slt i32 %9, 64
  br i1 %10, label %11, label %23

11:                                               ; preds = %8
  %12 = load i32, ptr getelementptr inbounds nuw (%struct.pmix_mca_base_framework_t, ptr @prte_plm_base_framework, i32 0, i32 11), align 4, !tbaa !6
  %13 = sext i32 %12 to i64
  %14 = getelementptr inbounds [0 x %struct.pmix_output_desc_t], ptr @pmix_output_info, i64 0, i64 %13
  %15 = getelementptr inbounds nuw %struct.pmix_output_desc_t, ptr %14, i32 0, i32 2
  %16 = load i32, ptr %15, align 4, !tbaa !19
  %17 = icmp sge i32 %16, 5
  br i1 %17, label %18, label %23

18:                                               ; preds = %11
  %19 = load i32, ptr getelementptr inbounds nuw (%struct.pmix_mca_base_framework_t, ptr @prte_plm_base_framework, i32 0, i32 11), align 4, !tbaa !6
  %20 = call ptr @prte_util_print_name_args(ptr noundef @prte_process_info)
  %21 = load ptr, ptr %2, align 8, !tbaa !55
  %22 = call ptr @prte_util_print_jobids(ptr noundef %21)
  call void (i32, ptr, ...) @pmix_output(i32 noundef %19, ptr noundef @.str.4, ptr noundef %20, ptr noundef %22)
  br label %23

23:                                               ; preds = %18, %11, %8, %1
  br label %24

24:                                               ; preds = %23
  br label %25

25:                                               ; preds = %24
  br label %26

26:                                               ; preds = %25
  %27 = load i32, ptr @pmix_class_init_epoch, align 4, !tbaa !25
  %28 = load i32, ptr getelementptr inbounds nuw (%struct.pmix_class_t, ptr @pmix_pointer_array_t_class, i32 0, i32 4), align 8, !tbaa !41
  %29 = icmp ne i32 %27, %28
  br i1 %29, label %30, label %31

30:                                               ; preds = %26
  call void @pmix_class_initialize(ptr noundef @pmix_pointer_array_t_class)
  br label %31

31:                                               ; preds = %30, %26
  %32 = getelementptr inbounds nuw %struct.pmix_object_t, ptr %3, i32 0, i32 1
  store ptr @pmix_pointer_array_t_class, ptr %32, align 8, !tbaa !42
  %33 = getelementptr inbounds nuw %struct.pmix_object_t, ptr %3, i32 0, i32 2
  store i32 1, ptr %33, align 8, !tbaa !43
  call void @pmix_obj_construct_tma(ptr noundef %3, ptr noundef null)
  call void @pmix_obj_run_constructors(ptr noundef %3)
  br label %34

34:                                               ; preds = %31
  br label %35

35:                                               ; preds = %34
  br label %36

36:                                               ; preds = %35
  br label %37

37:                                               ; preds = %36
  br label %38

38:                                               ; preds = %37
  br label %39

39:                                               ; preds = %38
  %40 = call i32 @pmix_pointer_array_init(ptr noundef %3, i32 noundef 1, i32 noundef 1, i32 noundef 1)
  br label %41

41:                                               ; preds = %39
  br label %42

42:                                               ; preds = %41
  br label %43

43:                                               ; preds = %42
  %44 = load i32, ptr @pmix_class_init_epoch, align 4, !tbaa !25
  %45 = load i32, ptr getelementptr inbounds nuw (%struct.pmix_class_t, ptr @prte_proc_t_class, i32 0, i32 4), align 8, !tbaa !41
  %46 = icmp ne i32 %44, %45
  br i1 %46, label %47, label %48

47:                                               ; preds = %43
  call void @pmix_class_initialize(ptr noundef @prte_proc_t_class)
  br label %48

48:                                               ; preds = %47, %43
  %49 = getelementptr inbounds nuw %struct.pmix_object_t, ptr %4, i32 0, i32 1
  store ptr @prte_proc_t_class, ptr %49, align 8, !tbaa !42
  %50 = getelementptr inbounds nuw %struct.pmix_object_t, ptr %4, i32 0, i32 2
  store i32 1, ptr %50, align 8, !tbaa !43
  call void @pmix_obj_construct_tma(ptr noundef %4, ptr noundef null)
  call void @pmix_obj_run_constructors(ptr noundef %4)
  br label %51

51:                                               ; preds = %48
  br label %52

52:                                               ; preds = %51
  br label %53

53:                                               ; preds = %52
  br label %54

54:                                               ; preds = %53
  br label %55

55:                                               ; preds = %54
  br label %56

56:                                               ; preds = %55
  %57 = getelementptr inbounds nuw %struct.prte_proc_t, ptr %4, i32 0, i32 1
  %58 = load ptr, ptr %2, align 8, !tbaa !55
  call void @PMIx_Load_procid(ptr noundef %57, ptr noundef %58, i32 noundef -2)
  %59 = call i32 @pmix_pointer_array_add(ptr noundef %3, ptr noundef %4)
  %60 = call i32 @prte_plm_base_prted_kill_local_procs(ptr noundef %3)
  store i32 %60, ptr %5, align 4, !tbaa !25
  %61 = icmp ne i32 0, %60
  br i1 %61, label %62, label %72

62:                                               ; preds = %56
  br label %63

63:                                               ; preds = %62
  %64 = load i32, ptr %5, align 4, !tbaa !25
  %65 = icmp ne i32 -43, %64
  br i1 %65, label %66, label %69

66:                                               ; preds = %63
  %67 = load i32, ptr %5, align 4, !tbaa !25
  %68 = call ptr @prte_strerror(i32 noundef %67)
  call void (i32, ptr, ...) @pmix_output(i32 noundef 0, ptr noundef @.str.3, ptr noundef %68, ptr noundef @.str.2, i32 noundef 146)
  br label %69

69:                                               ; preds = %66, %63
  br label %70

70:                                               ; preds = %69
  br label %71

71:                                               ; preds = %70
  br label %72

72:                                               ; preds = %71, %56
  br label %73

73:                                               ; preds = %72
  call void @pmix_obj_run_destructors(ptr noundef %3)
  br label %74

74:                                               ; preds = %73
  br label %75

75:                                               ; preds = %74
  br label %76

76:                                               ; preds = %75
  call void @pmix_obj_run_destructors(ptr noundef %4)
  br label %77

77:                                               ; preds = %76
  br label %78

78:                                               ; preds = %77
  %79 = load i32, ptr %5, align 4, !tbaa !25
  call void @llvm.lifetime.end.p0(i64 4, ptr %5) #11
  call void @llvm.lifetime.end.p0(i64 752, ptr %4) #11
  call void @llvm.lifetime.end.p0(i64 160, ptr %3) #11
  ret i32 %79
}