; Function Attrs: nounwind uwtable
define noundef i32 @prte_plm_base_prted_terminate_job(ptr noundef %0) local_unnamed_addr #0 {
  %2 = alloca %struct.pmix_pointer_array_t, align 8
  %3 = alloca %struct.prte_proc_t, align 8
  call void @llvm.lifetime.start.p0(i64 160, ptr nonnull %2) #10
  call void @llvm.lifetime.start.p0(i64 752, ptr nonnull %3) #10
  %4 = load i32, ptr getelementptr inbounds nuw (i8, ptr @prte_plm_base_framework, i64 76), align 4, !tbaa !3
  %or.cond = icmp ult i32 %4, 64
  br i1 %or.cond, label %5, label %13

5:                                                ; preds = %1
  %6 = zext nneg i32 %4 to i64
  %7 = getelementptr inbounds nuw [0 x %struct.pmix_output_desc_t], ptr @pmix_output_info, i64 0, i64 %6, i32 2
  %8 = load i32, ptr %7, align 4, !tbaa !18
  %9 = icmp sgt i32 %8, 4
  br i1 %9, label %10, label %13

10:                                               ; preds = %5
  %11 = tail call ptr @prte_util_print_name_args(ptr noundef nonnull @prte_process_info) #10
  %12 = tail call ptr @prte_util_print_jobids(ptr noundef %0) #10
  tail call void (i32, ptr, ...) @pmix_output(i32 noundef %4, ptr noundef nonnull @.str.4, ptr noundef %11, ptr noundef %12) #10
  br label %13

13:                                               ; preds = %1, %5, %10
  %14 = load i32, ptr @pmix_class_init_epoch, align 4, !tbaa !27
  %15 = load i32, ptr getelementptr inbounds nuw (i8, ptr @pmix_pointer_array_t_class, i64 32), align 8, !tbaa !28
  %.not = icmp eq i32 %14, %15
  br i1 %.not, label %17, label %16

16:                                               ; preds = %13
  tail call void @pmix_class_initialize(ptr noundef nonnull @pmix_pointer_array_t_class) #10
  br label %17

17:                                               ; preds = %16, %13
  %18 = getelementptr inbounds nuw i8, ptr %2, i64 40
  store ptr @pmix_pointer_array_t_class, ptr %18, align 8, !tbaa !29
  %19 = getelementptr inbounds nuw i8, ptr %2, i64 48
  store i32 1, ptr %19, align 8, !tbaa !30
  %20 = getelementptr inbounds nuw i8, ptr %2, i64 56
  call void @llvm.memset.p0.i64(ptr noundef nonnull align 8 dereferenceable(64) %20, i8 0, i64 64, i1 false)
  %21 = load ptr, ptr getelementptr inbounds nuw (i8, ptr @pmix_pointer_array_t_class, i64 40), align 8, !tbaa !31
  %22 = load ptr, ptr %21, align 8, !tbaa !32
  %.not6.i = icmp eq ptr %22, null
  br i1 %.not6.i, label %pmix_obj_run_constructors.exit, label %.lr.ph.i

.lr.ph.i:                                         ; preds = %17, %.lr.ph.i
  %23 = phi ptr [ %25, %.lr.ph.i ], [ %22, %17 ]
  %.07.i = phi ptr [ %24, %.lr.ph.i ], [ %21, %17 ]
  call void %23(ptr noundef nonnull %2) #10
  %24 = getelementptr inbounds nuw i8, ptr %.07.i, i64 8
  %25 = load ptr, ptr %24, align 8, !tbaa !32
  %.not.i = icmp eq ptr %25, null
  br i1 %.not.i, label %pmix_obj_run_constructors.exit, label %.lr.ph.i, !llvm.loop !33

pmix_obj_run_constructors.exit:                   ; preds = %.lr.ph.i, %17
  %26 = call i32 @pmix_pointer_array_init(ptr noundef nonnull %2, i32 noundef 1, i32 noundef 1, i32 noundef 1) #10
  %27 = load i32, ptr @pmix_class_init_epoch, align 4, !tbaa !27
  %28 = load i32, ptr getelementptr inbounds nuw (i8, ptr @prte_proc_t_class, i64 32), align 8, !tbaa !28
  %.not8 = icmp eq i32 %27, %28
  br i1 %.not8, label %30, label %29

29:                                               ; preds = %pmix_obj_run_constructors.exit
  call void @pmix_class_initialize(ptr noundef nonnull @prte_proc_t_class) #10
  br label %30

30:                                               ; preds = %29, %pmix_obj_run_constructors.exit
  %31 = getelementptr inbounds nuw i8, ptr %3, i64 40
  store ptr @prte_proc_t_class, ptr %31, align 8, !tbaa !29
  %32 = getelementptr inbounds nuw i8, ptr %3, i64 48
  store i32 1, ptr %32, align 8, !tbaa !30
  %33 = getelementptr inbounds nuw i8, ptr %3, i64 56
  call void @llvm.memset.p0.i64(ptr noundef nonnull align 8 dereferenceable(64) %33, i8 0, i64 64, i1 false)
  %34 = load ptr, ptr getelementptr inbounds nuw (i8, ptr @prte_proc_t_class, i64 40), align 8, !tbaa !31
  %35 = load ptr, ptr %34, align 8, !tbaa !32
  %.not6.i9 = icmp eq ptr %35, null
  br i1 %.not6.i9, label %pmix_obj_run_constructors.exit13, label %.lr.ph.i10

.lr.ph.i10:                                       ; preds = %30, %.lr.ph.i10
  %36 = phi ptr [ %38, %.lr.ph.i10 ], [ %35, %30 ]
  %.07.i11 = phi ptr [ %37, %.lr.ph.i10 ], [ %34, %30 ]
  call void %36(ptr noundef nonnull %3) #10
  %37 = getelementptr inbounds nuw i8, ptr %.07.i11, i64 8
  %38 = load ptr, ptr %37, align 8, !tbaa !32
  %.not.i12 = icmp eq ptr %38, null
  br i1 %.not.i12, label %pmix_obj_run_constructors.exit13, label %.lr.ph.i10, !llvm.loop !33

pmix_obj_run_constructors.exit13:                 ; preds = %.lr.ph.i10, %30
  %39 = getelementptr inbounds nuw i8, ptr %3, i64 144
  call void @PMIx_Load_procid(ptr noundef nonnull %39, ptr noundef %0, i32 noundef -2) #10
  %40 = call i32 @pmix_pointer_array_add(ptr noundef nonnull %2, ptr noundef nonnull %3) #10
  %41 = call i32 @prte_plm_base_prted_kill_local_procs(ptr noundef nonnull %2)
  switch i32 %41, label %42 [
    i32 -43, label %44
    i32 0, label %44
  ]

42:                                               ; preds = %pmix_obj_run_constructors.exit13
  %43 = call ptr @prte_strerror(i32 noundef %41) #10
  call void (i32, ptr, ...) @pmix_output(i32 noundef 0, ptr noundef nonnull @.str.3, ptr noundef %43, ptr noundef nonnull @.str.2, i32 noundef 146) #10
  br label %44

44:                                               ; preds = %pmix_obj_run_constructors.exit13, %pmix_obj_run_constructors.exit13, %42
  %45 = load ptr, ptr %18, align 8, !tbaa !29
  %46 = getelementptr inbounds nuw i8, ptr %45, i64 48
  %47 = load ptr, ptr %46, align 8, !tbaa !41
  %48 = load ptr, ptr %47, align 8, !tbaa !32
  %.not6.i14 = icmp eq ptr %48, null
  br i1 %.not6.i14, label %pmix_obj_run_destructors.exit, label %.lr.ph.i15

.lr.ph.i15:                                       ; preds = %44, %.lr.ph.i15
  %49 = phi ptr [ %51, %.lr.ph.i15 ], [ %48, %44 ]
  %.07.i16 = phi ptr [ %50, %.lr.ph.i15 ], [ %47, %44 ]
  call void %49(ptr noundef nonnull %2) #10
  %50 = getelementptr inbounds nuw i8, ptr %.07.i16, i64 8
  %51 = load ptr, ptr %50, align 8, !tbaa !32
  %.not.i17 = icmp eq ptr %51, null
  br i1 %.not.i17, label %pmix_obj_run_destructors.exit, label %.lr.ph.i15, !llvm.loop !42

pmix_obj_run_destructors.exit:                    ; preds = %.lr.ph.i15, %44
  %52 = load ptr, ptr %31, align 8, !tbaa !29
  %53 = getelementptr inbounds nuw i8, ptr %52, i64 48
  %54 = load ptr, ptr %53, align 8, !tbaa !41
  %55 = load ptr, ptr %54, align 8, !tbaa !32
  %.not6.i18 = icmp eq ptr %55, null
  br i1 %.not6.i18, label %pmix_obj_run_destructors.exit22, label %.lr.ph.i19

.lr.ph.i19:                                       ; preds = %pmix_obj_run_destructors.exit, %.lr.ph.i19
  %56 = phi ptr [ %58, %.lr.ph.i19 ], [ %55, %pmix_obj_run_destructors.exit ]
  %.07.i20 = phi ptr [ %57, %.lr.ph.i19 ], [ %54, %pmix_obj_run_destructors.exit ]
  call void %56(ptr noundef nonnull %3) #10
  %57 = getelementptr inbounds nuw i8, ptr %.07.i20, i64 8
  %58 = load ptr, ptr %57, align 8, !tbaa !32
  %.not.i21 = icmp eq ptr %58, null
  br i1 %.not.i21, label %pmix_obj_run_destructors.exit22, label %.lr.ph.i19, !llvm.loop !42

pmix_obj_run_destructors.exit22:                  ; preds = %.lr.ph.i19, %pmix_obj_run_destructors.exit
  call void @llvm.lifetime.end.p0(i64 752, ptr nonnull %3) #10
  call void @llvm.lifetime.end.p0(i64 160, ptr nonnull %2) #10
  ret i32 %41
}